; ModuleID = '1/872.c'
source_filename = "1/872.c"
target datalayout = "e-m:e-p270:32:32-p271:32:32-p272:64:64-i64:64-f80:128-n8:16:32:64-S128"
target triple = "x86_64-pc-linux-gnu"

@.str = private unnamed_addr constant [3 x i8] c"%d\00", align 1
@.str.1 = private unnamed_addr constant [4 x i8] c"%d\0A\00", align 1

; Function Attrs: noinline nounwind uwtable
define dso_local i32 @main() #0 {
  %1 = alloca i32, align 4
  %2 = alloca i32, align 4
  %3 = alloca i32, align 4
  %4 = alloca i32, align 4
  %5 = alloca i32, align 4
  %6 = alloca [100 x i32], align 16
  store i32 0, i32* %1, align 4
  %7 = call i32 (i8*, ...) @__isoc99_scanf(i8* getelementptr inbounds ([3 x i8], [3 x i8]* @.str, i64 0, i64 0), i32* %2)
  store i32 0, i32* %4, align 4
  br label %8

8:                                                ; preds = %46, %0
  %9 = load i32, i32* %4, align 4
  %10 = load i32, i32* %2, align 4
  %11 = sub nsw i32 %10, 1
  %12 = icmp sle i32 %9, %11
  br i1 %12, label %13, label %49

13:                                               ; preds = %8
  %14 = call i32 (i8*, ...) @__isoc99_scanf(i8* getelementptr inbounds ([3 x i8], [3 x i8]* @.str, i64 0, i64 0), i32* %3)
  %15 = load i32, i32* %4, align 4
  %16 = sext i32 %15 to i64
  %17 = getelementptr inbounds [100 x i32], [100 x i32]* %6, i64 0, i64 %16
  store i32 0, i32* %17, align 4
  store i32 2, i32* %5, align 4
  br label %18

18:                                               ; preds = %42, %13
  %19 = load i32, i32* %5, align 4
  %20 = sitofp i32 %19 to double
  %21 = load i32, i32* %3, align 4
  %22 = sitofp i32 %21 to double
  %23 = call double @sqrt(double %22) #3
  %24 = fcmp ole double %20, %23
  br i1 %24, label %25, label %45

25:                                               ; preds = %18
  %26 = load i32, i32* %3, align 4
  %27 = load i32, i32* %5, align 4
  %28 = srem i32 %26, %27
  %29 = icmp eq i32 %28, 0
  br i1 %29, label %30, label %41

30:                                               ; preds = %25
  %31 = load i32, i32* %5, align 4
  %32 = load i32, i32* %3, align 4
  %33 = load i32, i32* %5, align 4
  %34 = sdiv i32 %32, %33
  %35 = call i32 @chu(i32 %31, i32 %34)
  %36 = load i32, i32* %4, align 4
  %37 = sext i32 %36 to i64
  %38 = getelementptr inbounds [100 x i32], [100 x i32]* %6, i64 0, i64 %37
  %39 = load i32, i32* %38, align 4
  %40 = add nsw i32 %39, %35
  store i32 %40, i32* %38, align 4
  br label %41

41:                                               ; preds = %30, %25
  br label %42

42:                                               ; preds = %41
  %43 = load i32, i32* %5, align 4
  %44 = add nsw i32 %43, 1
  store i32 %44, i32* %5, align 4
  br label %18

45:                                               ; preds = %18
  br label %46

46:                                               ; preds = %45
  %47 = load i32, i32* %4, align 4
  %48 = add nsw i32 %47, 1
  store i32 %48, i32* %4, align 4
  br label %8

49:                                               ; preds = %8
  store i32 0, i32* %4, align 4
  br label %50

50:                                               ; preds = %62, %49
  %51 = load i32, i32* %4, align 4
  %52 = load i32, i32* %2, align 4
  %53 = sub nsw i32 %52, 1
  %54 = icmp sle i32 %51, %53
  br i1 %54, label %55, label %65

55:                                               ; preds = %50
  %56 = load i32, i32* %4, align 4
  %57 = sext i32 %56 to i64
  %58 = getelementptr inbounds [100 x i32], [100 x i32]* %6, i64 0, i64 %57
  %59 = load i32, i32* %58, align 4
  %60 = add nsw i32 %59, 1
  %61 = call i32 (i8*, ...) @printf(i8* getelementptr inbounds ([4 x i8], [4 x i8]* @.str.1, i64 0, i64 0), i32 %60)
  br label %62

62:                                               ; preds = %55
  %63 = load i32, i32* %4, align 4
  %64 = add nsw i32 %63, 1
  store i32 %64, i32* %4, align 4
  br label %50

65:                                               ; preds = %50
  %66 = load i32, i32* %1, align 4
  ret i32 %66
}

declare dso_local i32 @__isoc99_scanf(i8*, ...) #1

; Function Attrs: nounwind
declare dso_local double @sqrt(double) #2

; Function Attrs: noinline nounwind uwtable
define dso_local i32 @chu(i32 %0, i32 %1) #0 {
  %3 = alloca i32, align 4
  %4 = alloca i32, align 4
  %5 = alloca i32, align 4
  %6 = alloca i32, align 4
  %7 = alloca i32, align 4
  store i32 %0, i32* %3, align 4
  store i32 %1, i32* %4, align 4
  store i32 1, i32* %7, align 4
  %8 = load i32, i32* %4, align 4
  store i32 %8, i32* %6, align 4
  %9 = load i32, i32* %3, align 4
  store i32 %9, i32* %5, align 4
  br label %10

10:                                               ; preds = %31, %2
  %11 = load i32, i32* %5, align 4
  %12 = sitofp i32 %11 to double
  %13 = load i32, i32* %6, align 4
  %14 = sitofp i32 %13 to double
  %15 = call double @sqrt(double %14) #3
  %16 = fcmp ole double %12, %15
  br i1 %16, label %17, label %34

17:                                               ; preds = %10
  %18 = load i32, i32* %6, align 4
  %19 = load i32, i32* %5, align 4
  %20 = srem i32 %18, %19
  %21 = icmp eq i32 %20, 0
  br i1 %21, label %22, label %30

22:                                               ; preds = %17
  %23 = load i32, i32* %5, align 4
  %24 = load i32, i32* %6, align 4
  %25 = load i32, i32* %5, align 4
  %26 = sdiv i32 %24, %25
  %27 = call i32 @chu(i32 %23, i32 %26)
  %28 = load i32, i32* %7, align 4
  %29 = add nsw i32 %28, %27
  store i32 %29, i32* %7, align 4
  br label %30

30:                                               ; preds = %22, %17
  br label %31

31:                                               ; preds = %30
  %32 = load i32, i32* %5, align 4
  %33 = add nsw i32 %32, 1
  store i32 %33, i32* %5, align 4
  br label %10

34:                                               ; preds = %10
  %35 = load i32, i32* %7, align 4
  ret i32 %35
}

declare dso_local i32 @printf(i8*, ...) #1


!llvm.module.flags = !{!0}
!llvm.ident = !{!1}

!0 = !{i32 1, !"wchar_size", i32 4}
!1 = !{!"clang version 10.0.0-4ubuntu1 "}
